; Function Attrs: mustprogress nofree norecurse nounwind willreturn uwtable
define internal void @_ZN7rocksdb12_GLOBAL__N_116MockWritableFile4SyncERKNS_9IOOptionsEPNS_14IODebugContextE(ptr dead_on_unwind noalias writable writeonly sret(%"class.rocksdb::IOStatus") align 8 captures(none) initializes((0, 6), (8, 16)) %0, ptr noundef nonnull readonly align 8 captures(none) dereferenceable(64) %1, ptr nonnull readnone align 8 captures(none) %2, ptr readnone captures(none) %3) unnamed_addr #19 align 2 personality ptr @__gxx_personality_v0 {
  %5 = getelementptr inbounds nuw i8, ptr %1, i64 40
  %6 = load ptr, ptr %5, align 8, !tbaa !251
  tail call void @llvm.experimental.noalias.scope.decl(metadata !636)
  %7 = getelementptr inbounds nuw i8, ptr %6, i64 120
  %8 = load atomic i64, ptr %7 seq_cst, align 8, !noalias !636
  %9 = getelementptr inbounds nuw i8, ptr %6, i64 144
  store atomic i64 %8, ptr %9 seq_cst, align 8, !noalias !636
  store i8 0, ptr %0, align 8, !tbaa !114, !alias.scope !639
  %10 = getelementptr inbounds nuw i8, ptr %0, i64 1
  store i8 0, ptr %10, align 1, !tbaa !139, !alias.scope !639
  %11 = getelementptr inbounds nuw i8, ptr %0, i64 2
  %12 = getelementptr inbounds nuw i8, ptr %0, i64 8
  store ptr null, ptr %12, align 8, !tbaa !143, !alias.scope !639
  store i32 0, ptr %11, align 2, !alias.scope !639
  ret void
}